; ModuleID = '54/578.cpp'
source_filename = "54/578.cpp"
target datalayout = "e-m:e-p270:32:32-p271:32:32-p272:64:64-i64:64-f80:128-n8:16:32:64-S128"
target triple = "x86_64-pc-linux-gnu"

%"class.std::ios_base::Init" = type { i8 }
%"class.std::basic_istream" = type { i32 (...)**, i64, %"class.std::basic_ios" }
%"class.std::basic_ios" = type { %"class.std::ios_base", %"class.std::basic_ostream"*, i8, i8, %"class.std::basic_streambuf"*, %"class.std::ctype"*, %"class.std::num_put"*, %"class.std::num_get"* }
%"class.std::ios_base" = type { i32 (...)**, i64, i64, i32, i32, i32, %"struct.std::ios_base::_Callback_list"*, %"struct.std::ios_base::_Words", [8 x %"struct.std::ios_base::_Words"], i32, %"struct.std::ios_base::_Words"*, %"class.std::locale" }
%"struct.std::ios_base::_Callback_list" = type { %"struct.std::ios_base::_Callback_list"*, void (i32, %"class.std::ios_base"*, i32)*, i32, i32 }
%"struct.std::ios_base::_Words" = type { i8*, i64 }
%"class.std::locale" = type { %"class.std::locale::_Impl"* }
%"class.std::locale::_Impl" = type { i32, %"class.std::locale::facet"**, i64, %"class.std::locale::facet"**, i8** }
%"class.std::locale::facet" = type <{ i32 (...)**, i32, [4 x i8] }>
%"class.std::basic_ostream" = type { i32 (...)**, %"class.std::basic_ios" }
%"class.std::basic_streambuf" = type { i32 (...)**, i8*, i8*, i8*, i8*, i8*, i8*, %"class.std::locale" }
%"class.std::ctype" = type <{ %"class.std::locale::facet.base", [4 x i8], %struct.__locale_struct*, i8, [7 x i8], i32*, i32*, i16*, i8, [256 x i8], [256 x i8], i8, [6 x i8] }>
%"class.std::locale::facet.base" = type <{ i32 (...)**, i32 }>
%struct.__locale_struct = type { [13 x %struct.__locale_data*], i16*, i32*, i32*, [13 x i8*] }
%struct.__locale_data = type opaque
%"class.std::num_put" = type { %"class.std::locale::facet.base", [4 x i8] }
%"class.std::num_get" = type { %"class.std::locale::facet.base", [4 x i8] }

@_ZStL8__ioinit = internal global %"class.std::ios_base::Init" zeroinitializer, align 1
@__dso_handle = external hidden global i8
@_ZSt3cin = external dso_local global %"class.std::basic_istream", align 8
@_ZSt4cout = external dso_local global %"class.std::basic_ostream", align 8
@llvm.global_ctors = appending global [1 x { i32, void ()*, i8* }] [{ i32, void ()*, i8* } { i32 65535, void ()* @_GLOBAL__sub_I_578.cpp, i8* null }]

; Function Attrs: noinline uwtable
define internal void @__cxx_global_var_init() #0 section ".text.startup" {
  call void @_ZNSt8ios_base4InitC1Ev(%"class.std::ios_base::Init"* @_ZStL8__ioinit)
  %1 = call i32 @__cxa_atexit(void (i8*)* bitcast (void (%"class.std::ios_base::Init"*)* @_ZNSt8ios_base4InitD1Ev to void (i8*)*), i8* getelementptr inbounds (%"class.std::ios_base::Init", %"class.std::ios_base::Init"* @_ZStL8__ioinit, i32 0, i32 0), i8* @__dso_handle) #3
  ret void
}

declare dso_local void @_ZNSt8ios_base4InitC1Ev(%"class.std::ios_base::Init"*) unnamed_addr #1

; Function Attrs: nounwind
declare dso_local void @_ZNSt8ios_base4InitD1Ev(%"class.std::ios_base::Init"*) unnamed_addr #2

; Function Attrs: nounwind
declare dso_local i32 @__cxa_atexit(void (i8*)*, i8*, i8*) #3

; Function Attrs: noinline norecurse uwtable
define dso_local i32 @main() #4 {
  %1 = alloca i32, align 4
  %2 = alloca i32, align 4
  %3 = alloca i32, align 4
  %4 = alloca i32, align 4
  %5 = alloca i32, align 4
  %6 = alloca i32, align 4
  store i32 0, i32* %1, align 4
  %7 = call dereferenceable(280) %"class.std::basic_istream"* @_ZNSirsERi(%"class.std::basic_istream"* @_ZSt3cin, i32* dereferenceable(4) %4)
  %8 = call dereferenceable(280) %"class.std::basic_istream"* @_ZNSirsERi(%"class.std::basic_istream"* %7, i32* dereferenceable(4) %5)
  store i32 1, i32* %3, align 4
  br label %9

9:                                                ; preds = %55, %0
  %10 = load i32, i32* %4, align 4
  %11 = load i32, i32* %3, align 4
  %12 = mul nsw i32 %10, %11
  %13 = load i32, i32* %5, align 4
  %14 = add nsw i32 %12, %13
  store i32 %14, i32* %2, align 4
  store i32 1, i32* %6, align 4
  br label %15

15:                                               ; preds = %43, %9
  %16 = load i32, i32* %6, align 4
  %17 = load i32, i32* %4, align 4
  %18 = icmp slt i32 %16, %17
  br i1 %18, label %19, label %46

19:                                               ; preds = %15
  %20 = load i32, i32* %2, align 4
  %21 = load i32, i32* %4, align 4
  %22 = sub nsw i32 %21, 1
  %23 = srem i32 %20, %22
  %24 = icmp eq i32 %23, 0
  br i1 %24, label %25, label %34

25:                                               ; preds = %19
  %26 = load i32, i32* %2, align 4
  %27 = load i32, i32* %4, align 4
  %28 = mul nsw i32 %26, %27
  %29 = load i32, i32* %4, align 4
  %30 = sub nsw i32 %29, 1
  %31 = sdiv i32 %28, %30
  %32 = load i32, i32* %5, align 4
  %33 = add nsw i32 %31, %32
  store i32 %33, i32* %2, align 4
  br label %42

34:                                               ; preds = %19
  %35 = load i32, i32* %2, align 4
  %36 = load i32, i32* %4, align 4
  %37 = sub nsw i32 %36, 1
  %38 = srem i32 %35, %37
  %39 = icmp ne i32 %38, 0
  br i1 %39, label %40, label %41

40:                                               ; preds = %34
  br label %46

41:                                               ; preds = %34
  br label %42

42:                                               ; preds = %41, %25
  br label %43

43:                                               ; preds = %42
  %44 = load i32, i32* %6, align 4
  %45 = add nsw i32 %44, 1
  store i32 %45, i32* %6, align 4
  br label %15

46:                                               ; preds = %40, %15
  %47 = load i32, i32* %6, align 4
  %48 = load i32, i32* %4, align 4
  %49 = icmp eq i32 %47, %48
  br i1 %49, label %50, label %54

50:                                               ; preds = %46
  %51 = load i32, i32* %2, align 4
  %52 = call dereferenceable(272) %"class.std::basic_ostream"* @_ZNSolsEi(%"class.std::basic_ostream"* @_ZSt4cout, i32 %51)
  %53 = call dereferenceable(272) %"class.std::basic_ostream"* @_ZNSolsEPFRSoS_E(%"class.std::basic_ostream"* %52, %"class.std::basic_ostream"* (%"class.std::basic_ostream"*)* @_ZSt4endlIcSt11char_traitsIcEERSt13basic_ostreamIT_T0_ES6_)
  ret i32 0

54:                                               ; preds = %46
  br label %55

55:                                               ; preds = %54
  %56 = load i32, i32* %3, align 4
  %57 = add nsw i32 %56, 1
  store i32 %57, i32* %3, align 4
  br label %9
}

declare dso_local dereferenceable(280) %"class.std::basic_istream"* @_ZNSirsERi(%"class.std::basic_istream"*, i32* dereferenceable(4)) #1

declare dso_local dereferenceable(272) %"class.std::basic_ostream"* @_ZNSolsEi(%"class.std::basic_ostream"*, i32) #1

declare dso_local dereferenceable(272) %"class.std::basic_ostream"* @_ZNSolsEPFRSoS_E(%"class.std::basic_ostream"*, %"class.std::basic_ostream"* (%"class.std::basic_ostream"*)*) #1

declare dso_local dereferenceable(272) %"class.std::basic_ostream"* @_ZSt4endlIcSt11char_traitsIcEERSt13basic_ostreamIT_T0_ES6_(%"class.std::basic_ostream"* dereferenceable(272)) #1

; Function Attrs: noinline uwtable
define internal void @_GLOBAL__sub_I_578.cpp() #0 section ".text.startup" {
  call void @__cxx_global_var_init()
  ret void
}


!llvm.module.flags = !{!0}
!llvm.ident = !{!1}

!0 = !{i32 1, !"wchar_size", i32 4}
!1 = !{!"clang version 10.0.0-4ubuntu1 "}
